; Function Attrs: nounwind uwtable
define nonnull ptr @l_Lean_Compiler_LCNF_Code_containsConst_goLetValue___boxed(ptr noundef %0, ptr noundef %1) local_unnamed_addr #0 {
  %3 = ptrtoint ptr %1 to i64
  %4 = and i64 %3, 1
  %.not.i.i = icmp eq i64 %4, 0
  br i1 %.not.i.i, label %8, label %5

5:                                                ; preds = %2
  %6 = lshr i64 %3, 1
  %7 = trunc i64 %6 to i32
  br label %lean_obj_tag.exit.i

8:                                                ; preds = %2
  %9 = getelementptr i8, ptr %1, i64 4
  %.val.i.i = load i32, ptr %9, align 4
  %10 = lshr i32 %.val.i.i, 24
  br label %lean_obj_tag.exit.i

lean_obj_tag.exit.i:                              ; preds = %8, %5
  %.0.i.i = phi i32 [ %7, %5 ], [ %10, %8 ]
  %11 = icmp eq i32 %.0.i.i, 3
  br i1 %11, label %12, label %l_Lean_Compiler_LCNF_Code_containsConst_goLetValue.exit

12:                                               ; preds = %lean_obj_tag.exit.i
  %13 = getelementptr inbounds nuw i8, ptr %1, i64 8
  %14 = load ptr, ptr %13, align 8, !tbaa !7
  %15 = tail call zeroext i8 @lean_name_eq(ptr noundef %14, ptr noundef %0) #5
  %16 = zext i8 %15 to i64
  %17 = shl nuw nsw i64 %16, 1
  %18 = or disjoint i64 %17, 1
  br label %l_Lean_Compiler_LCNF_Code_containsConst_goLetValue.exit

l_Lean_Compiler_LCNF_Code_containsConst_goLetValue.exit: ; preds = %lean_obj_tag.exit.i, %12
  %.0.i = phi i64 [ %18, %12 ], [ 1, %lean_obj_tag.exit.i ]
  br i1 %.not.i.i, label %19, label %lean_dec.exit5

19:                                               ; preds = %l_Lean_Compiler_LCNF_Code_containsConst_goLetValue.exit
  %20 = load i32, ptr %1, align 4, !tbaa !9
  %21 = icmp sgt i32 %20, 1
  br i1 %21, label %22, label %24, !prof !12

22:                                               ; preds = %19
  %23 = add nsw i32 %20, -1
  store i32 %23, ptr %1, align 4, !tbaa !9
  br label %lean_dec.exit5

24:                                               ; preds = %19
  %.not.i = icmp eq i32 %20, 0
  br i1 %.not.i, label %lean_dec.exit5, label %25

25:                                               ; preds = %24
  tail call void @lean_dec_ref_cold(ptr noundef nonnull %1) #5
  br label %lean_dec.exit5

lean_dec.exit5:                                   ; preds = %25, %24, %22, %l_Lean_Compiler_LCNF_Code_containsConst_goLetValue.exit
  %26 = ptrtoint ptr %0 to i64
  %27 = and i64 %26, 1
  %.not8 = icmp eq i64 %27, 0
  br i1 %.not8, label %28, label %lean_dec.exit

28:                                               ; preds = %lean_dec.exit5
  %29 = load i32, ptr %0, align 4, !tbaa !9
  %30 = icmp sgt i32 %29, 1
  br i1 %30, label %31, label %33, !prof !12

31:                                               ; preds = %28
  %32 = add nsw i32 %29, -1
  store i32 %32, ptr %0, align 4, !tbaa !9
  br label %lean_dec.exit

33:                                               ; preds = %28
  %.not.i6 = icmp eq i32 %29, 0
  br i1 %.not.i6, label %lean_dec.exit, label %34

34:                                               ; preds = %33
  tail call void @lean_dec_ref_cold(ptr noundef nonnull %0) #5
  br label %lean_dec.exit

lean_dec.exit:                                    ; preds = %34, %33, %31, %lean_dec.exit5
  %35 = inttoptr i64 %.0.i to ptr
  ret ptr %35
}